; Function Attrs: nounwind uwtable
define internal noundef nonnull ptr @php_random_engine_pcgoneseq128xslrr64_new(ptr noundef %0) #0 {
  %2 = getelementptr inbounds i8, ptr %0, i64 32
  %3 = load i32, ptr %2, align 8
  %4 = getelementptr inbounds i8, ptr %0, i64 28
  %5 = load i32, ptr %4, align 4
  %6 = lshr i32 %5, 11
  %.lobit.i = and i32 %6, 1
  %7 = xor i32 %.lobit.i, 1
  %8 = sub nsw i32 %3, %7
  %9 = sext i32 %8 to i64
  %10 = shl nsw i64 %9, 4
  %11 = add nsw i64 %10, 72
  %12 = tail call noalias ptr @_emalloc(i64 noundef %11) #15
  tail call void @llvm.memset.p0.i64(ptr noundef nonnull align 1 dereferenceable(16) %12, i8 0, i64 16, i1 false)
  %13 = getelementptr inbounds i8, ptr %12, i64 16
  tail call void @zend_object_std_init(ptr noundef nonnull %13, ptr noundef %0) #13
  tail call void @object_properties_init(ptr noundef nonnull %13, ptr noundef %0) #13
  %14 = load i64, ptr @php_random_algo_pcgoneseq128xslrr64, align 8
  %.not.i.i = icmp eq i64 %14, 0
  br i1 %.not.i.i, label %php_random_engine_common_init.exit, label %15

15:                                               ; preds = %1
  %16 = tail call noalias ptr @_ecalloc(i64 noundef 1, i64 noundef %14) #14
  br label %php_random_engine_common_init.exit

php_random_engine_common_init.exit:               ; preds = %1, %15
  %17 = phi ptr [ %16, %15 ], [ null, %1 ]
  store ptr @php_random_algo_pcgoneseq128xslrr64, ptr %12, align 8
  %.sroa.2.0..sroa_idx.i = getelementptr inbounds i8, ptr %12, i64 8
  store ptr %17, ptr %.sroa.2.0..sroa_idx.i, align 8
  %18 = getelementptr inbounds i8, ptr %12, i64 40
  store ptr @random_engine_pcgoneseq128xslrr64_object_handlers, ptr %18, align 8
  ret ptr %13
}